target datalayout = "e-m:e-p270:32:32-p271:32:32-p272:64:64-i64:64-f80:128-n8:16:32:64-S128"
target triple = "x86_64-pc-linux-gnu"

@.str = private unnamed_addr constant [5 x i8] c"%d%d\00", align 1
@.str.1 = private unnamed_addr constant [3 x i8] c"%d\00", align 1
@.str.2 = private unnamed_addr constant [4 x i8] c"%d\0A\00", align 1

; Function Attrs: noinline nounwind uwtable
define dso_local i32 @main() #0 {
  %1 = alloca i32, align 4
  %2 = alloca i32, align 4
  %3 = alloca i32, align 4
  %4 = alloca i8*, align 8
  %5 = alloca i64, align 8
  %6 = alloca i64, align 8
  %7 = alloca i32, align 4
  %8 = alloca i32, align 4
  %9 = alloca i32, align 4
  %10 = alloca i32, align 4
  %11 = alloca i32, align 4
  %12 = alloca i32, align 4
  store i32 0, i32* %1, align 4
  %13 = call i32 (i8*, ...) @__isoc99_scanf(i8* getelementptr inbounds ([5 x i8], [5 x i8]* @.str, i64 0, i64 0), i32* %2, i32* %3)
  %14 = load i32, i32* %2, align 4
  %15 = add nsw i32 %14, 2
  %16 = zext i32 %15 to i64
  %17 = load i32, i32* %3, align 4
  %18 = add nsw i32 %17, 2
  %19 = zext i32 %18 to i64
  %20 = call i8* @llvm.stacksave()
  store i8* %20, i8** %4, align 8
  %21 = mul nuw i64 %16, %19
  %22 = alloca i32, i64 %21, align 16
  store i64 %16, i64* %5, align 8
  store i64 %19, i64* %6, align 8
  store i32 0, i32* %7, align 4
  br label %23

23:                                               ; preds = %46, %0
  %24 = load i32, i32* %7, align 4
  %25 = load i32, i32* %2, align 4
  %26 = add nsw i32 %25, 2
  %27 = icmp slt i32 %24, %26
  br i1 %27, label %28, label %49

28:                                               ; preds = %23
  store i32 0, i32* %8, align 4
  br label %29

29:                                               ; preds = %42, %28
  %30 = load i32, i32* %8, align 4
  %31 = load i32, i32* %3, align 4
  %32 = add nsw i32 %31, 2
  %33 = icmp slt i32 %30, %32
  br i1 %33, label %34, label %45

34:                                               ; preds = %29
  %35 = load i32, i32* %7, align 4
  %36 = sext i32 %35 to i64
  %37 = mul nsw i64 %36, %19
  %38 = getelementptr inbounds i32, i32* %22, i64 %37
  %39 = load i32, i32* %8, align 4
  %40 = sext i32 %39 to i64
  %41 = getelementptr inbounds i32, i32* %38, i64 %40
  store i32 0, i32* %41, align 4
  br label %42

42:                                               ; preds = %34
  %43 = load i32, i32* %8, align 4
  %44 = add nsw i32 %43, 1
  store i32 %44, i32* %8, align 4
  br label %29

45:                                               ; preds = %29
  br label %46

46:                                               ; preds = %45
  %47 = load i32, i32* %7, align 4
  %48 = add nsw i32 %47, 1
  store i32 %48, i32* %7, align 4
  br label %23

49:                                               ; preds = %23
  store i32 1, i32* %9, align 4
  br label %50

50:                                               ; preds = %74, %49
  %51 = load i32, i32* %9, align 4
  %52 = load i32, i32* %2, align 4
  %53 = add nsw i32 %52, 1
  %54 = icmp slt i32 %51, %53
  br i1 %54, label %55, label %77

55:                                               ; preds = %50
  store i32 1, i32* %10, align 4
  br label %56

56:                                               ; preds = %70, %55
  %57 = load i32, i32* %10, align 4
  %58 = load i32, i32* %3, align 4
  %59 = add nsw i32 %58, 1
  %60 = icmp slt i32 %57, %59
  br i1 %60, label %61, label %73

61:                                               ; preds = %56
  %62 = load i32, i32* %9, align 4
  %63 = sext i32 %62 to i64
  %64 = mul nsw i64 %63, %19
  %65 = getelementptr inbounds i32, i32* %22, i64 %64
  %66 = load i32, i32* %10, align 4
  %67 = sext i32 %66 to i64
  %68 = getelementptr inbounds i32, i32* %65, i64 %67
  %69 = call i32 (i8*, ...) @__isoc99_scanf(i8* getelementptr inbounds ([3 x i8], [3 x i8]* @.str.1, i64 0, i64 0), i32* %68)
  br label %70

70:                                               ; preds = %61
  %71 = load i32, i32* %10, align 4
  %72 = add nsw i32 %71, 1
  store i32 %72, i32* %10, align 4
  br label %56

73:                                               ; preds = %56
  br label %74

74:                                               ; preds = %73
  %75 = load i32, i32* %9, align 4
  %76 = add nsw i32 %75, 1
  store i32 %76, i32* %9, align 4
  br label %50

77:                                               ; preds = %50
  store i32 1, i32* %11, align 4
  store i32 1, i32* %12, align 4
  br label %78

78:                                               ; preds = %299, %77
  %79 = load i32, i32* %11, align 4
  %80 = load i32, i32* %2, align 4
  %81 = add nsw i32 %80, 1
  %82 = icmp slt i32 %79, %81
  br i1 %82, label %83, label %88

83:                                               ; preds = %78
  %84 = load i32, i32* %12, align 4
  %85 = load i32, i32* %3, align 4
  %86 = add nsw i32 %85, 1
  %87 = icmp slt i32 %84, %86
  br label %88

88:                                               ; preds = %83, %78
  %89 = phi i1 [ false, %78 ], [ %87, %83 ]
  br i1 %89, label %90, label %300

90:                                               ; preds = %88
  %91 = load i32, i32* %11, align 4
  %92 = sext i32 %91 to i64
  %93 = mul nsw i64 %92, %19
  %94 = getelementptr inbounds i32, i32* %22, i64 %93
  %95 = load i32, i32* %12, align 4
  %96 = sext i32 %95 to i64
  %97 = getelementptr inbounds i32, i32* %94, i64 %96
  %98 = load i32, i32* %97, align 4
  %99 = call i32 (i8*, ...) @printf(i8* getelementptr inbounds ([4 x i8], [4 x i8]* @.str.2, i64 0, i64 0), i32 %98)
  %100 = load i32, i32* %11, align 4
  %101 = sext i32 %100 to i64
  %102 = mul nsw i64 %101, %19
  %103 = getelementptr inbounds i32, i32* %22, i64 %102
  %104 = load i32, i32* %12, align 4
  %105 = sext i32 %104 to i64
  %106 = getelementptr inbounds i32, i32* %103, i64 %105
  store i32 0, i32* %106, align 4
  %107 = load i32, i32* %11, align 4
  %108 = sext i32 %107 to i64
  %109 = mul nsw i64 %108, %19
  %110 = getelementptr inbounds i32, i32* %22, i64 %109
  %111 = load i32, i32* %12, align 4
  %112 = add nsw i32 %111, 1
  %113 = sext i32 %112 to i64
  %114 = getelementptr inbounds i32, i32* %110, i64 %113
  %115 = load i32, i32* %114, align 4
  %116 = icmp ne i32 %115, 0
  br i1 %116, label %117, label %142

117:                                              ; preds = %90
  %118 = load i32, i32* %11, align 4
  %119 = sext i32 %118 to i64
  %120 = mul nsw i64 %119, %19
  %121 = getelementptr inbounds i32, i32* %22, i64 %120
  %122 = load i32, i32* %12, align 4
  %123 = sub nsw i32 %122, 1
  %124 = sext i32 %123 to i64
  %125 = getelementptr inbounds i32, i32* %121, i64 %124
  %126 = load i32, i32* %125, align 4
  %127 = icmp eq i32 %126, 0
  br i1 %127, label %128, label %142

128:                                              ; preds = %117
  %129 = load i32, i32* %11, align 4
  %130 = sub nsw i32 %129, 1
  %131 = sext i32 %130 to i64
  %132 = mul nsw i64 %131, %19
  %133 = getelementptr inbounds i32, i32* %22, i64 %132
  %134 = load i32, i32* %12, align 4
  %135 = sext i32 %134 to i64
  %136 = getelementptr inbounds i32, i32* %133, i64 %135
  %137 = load i32, i32* %136, align 4
  %138 = icmp eq i32 %137, 0
  br i1 %138, label %139, label %142

139:                                              ; preds = %128
  %140 = load i32, i32* %12, align 4
  %141 = add nsw i32 %140, 1
  store i32 %141, i32* %12, align 4
  br label %299

142:                                              ; preds = %128, %117, %90
  %143 = load i32, i32* %11, align 4
  %144 = add nsw i32 %143, 1
  %145 = sext i32 %144 to i64
  %146 = mul nsw i64 %145, %19
  %147 = getelementptr inbounds i32, i32* %22, i64 %146
  %148 = load i32, i32* %12, align 4
  %149 = sext i32 %148 to i64
  %150 = getelementptr inbounds i32, i32* %147, i64 %149
  %151 = load i32, i32* %150, align 4
  %152 = icmp ne i32 %151, 0
  br i1 %152, label %153, label %178

153:                                              ; preds = %142
  %154 = load i32, i32* %11, align 4
  %155 = sext i32 %154 to i64
  %156 = mul nsw i64 %155, %19
  %157 = getelementptr inbounds i32, i32* %22, i64 %156
  %158 = load i32, i32* %12, align 4
  %159 = add nsw i32 %158, 1
  %160 = sext i32 %159 to i64
  %161 = getelementptr inbounds i32, i32* %157, i64 %160
  %162 = load i32, i32* %161, align 4
  %163 = icmp eq i32 %162, 0
  br i1 %163, label %164, label %178

164:                                              ; preds = %153
  %165 = load i32, i32* %11, align 4
  %166 = sub nsw i32 %165, 1
  %167 = sext i32 %166 to i64
  %168 = mul nsw i64 %167, %19
  %169 = getelementptr inbounds i32, i32* %22, i64 %168
  %170 = load i32, i32* %12, align 4
  %171 = sext i32 %170 to i64
  %172 = getelementptr inbounds i32, i32* %169, i64 %171
  %173 = load i32, i32* %172, align 4
  %174 = icmp eq i32 %173, 0
  br i1 %174, label %175, label %178

175:                                              ; preds = %164
  %176 = load i32, i32* %11, align 4
  %177 = add nsw i32 %176, 1
  store i32 %177, i32* %11, align 4
  br label %298

178:                                              ; preds = %164, %153, %142
  %179 = load i32, i32* %11, align 4
  %180 = add nsw i32 %179, 1
  %181 = sext i32 %180 to i64
  %182 = mul nsw i64 %181, %19
  %183 = getelementptr inbounds i32, i32* %22, i64 %182
  %184 = load i32, i32* %12, align 4
  %185 = sext i32 %184 to i64
  %186 = getelementptr inbounds i32, i32* %183, i64 %185
  %187 = load i32, i32* %186, align 4
  %188 = icmp eq i32 %187, 0
  br i1 %188, label %189, label %214

189:                                              ; preds = %178
  %190 = load i32, i32* %11, align 4
  %191 = sext i32 %190 to i64
  %192 = mul nsw i64 %191, %19
  %193 = getelementptr inbounds i32, i32* %22, i64 %192
  %194 = load i32, i32* %12, align 4
  %195 = sub nsw i32 %194, 1
  %196 = sext i32 %195 to i64
  %197 = getelementptr inbounds i32, i32* %193, i64 %196
  %198 = load i32, i32* %197, align 4
  %199 = icmp ne i32 %198, 0
  br i1 %199, label %200, label %214

200:                                              ; preds = %189
  %201 = load i32, i32* %11, align 4
  %202 = sext i32 %201 to i64
  %203 = mul nsw i64 %202, %19
  %204 = getelementptr inbounds i32, i32* %22, i64 %203
  %205 = load i32, i32* %12, align 4
  %206 = add nsw i32 %205, 1
  %207 = sext i32 %206 to i64
  %208 = getelementptr inbounds i32, i32* %204, i64 %207
  %209 = load i32, i32* %208, align 4
  %210 = icmp eq i32 %209, 0
  br i1 %210, label %211, label %214

211:                                              ; preds = %200
  %212 = load i32, i32* %12, align 4
  %213 = add nsw i32 %212, -1
  store i32 %213, i32* %12, align 4
  br label %297

214:                                              ; preds = %200, %189, %178
  %215 = load i32, i32* %11, align 4
  %216 = sext i32 %215 to i64
  %217 = mul nsw i64 %216, %19
  %218 = getelementptr inbounds i32, i32* %22, i64 %217
  %219 = load i32, i32* %12, align 4
  %220 = sub nsw i32 %219, 1
  %221 = sext i32 %220 to i64
  %222 = getelementptr inbounds i32, i32* %218, i64 %221
  %223 = load i32, i32* %222, align 4
  %224 = icmp eq i32 %223, 0
  br i1 %224, label %225, label %250

225:                                              ; preds = %214
  %226 = load i32, i32* %11, align 4
  %227 = add nsw i32 %226, 1
  %228 = sext i32 %227 to i64
  %229 = mul nsw i64 %228, %19
  %230 = getelementptr inbounds i32, i32* %22, i64 %229
  %231 = load i32, i32* %12, align 4
  %232 = sext i32 %231 to i64
  %233 = getelementptr inbounds i32, i32* %230, i64 %232
  %234 = load i32, i32* %233, align 4
  %235 = icmp eq i32 %234, 0
  br i1 %235, label %236, label %250

236:                                              ; preds = %225
  %237 = load i32, i32* %11, align 4
  %238 = sub nsw i32 %237, 1
  %239 = sext i32 %238 to i64
  %240 = mul nsw i64 %239, %19
  %241 = getelementptr inbounds i32, i32* %22, i64 %240
  %242 = load i32, i32* %12, align 4
  %243 = sext i32 %242 to i64
  %244 = getelementptr inbounds i32, i32* %241, i64 %243
  %245 = load i32, i32* %244, align 4
  %246 = icmp ne i32 %245, 0
  br i1 %246, label %247, label %250

247:                                              ; preds = %236
  %248 = load i32, i32* %11, align 4
  %249 = add nsw i32 %248, -1
  store i32 %249, i32* %11, align 4
  br label %296

250:                                              ; preds = %236, %225, %214
  %251 = load i32, i32* %11, align 4
  %252 = sext i32 %251 to i64
  %253 = mul nsw i64 %252, %19
  %254 = getelementptr inbounds i32, i32* %22, i64 %253
  %255 = load i32, i32* %12, align 4
  %256 = sub nsw i32 %255, 1
  %257 = sext i32 %256 to i64
  %258 = getelementptr inbounds i32, i32* %254, i64 %257
  %259 = load i32, i32* %258, align 4
  %260 = icmp eq i32 %259, 0
  br i1 %260, label %261, label %295

261:                                              ; preds = %250
  %262 = load i32, i32* %11, align 4
  %263 = add nsw i32 %262, 1
  %264 = sext i32 %263 to i64
  %265 = mul nsw i64 %264, %19
  %266 = getelementptr inbounds i32, i32* %22, i64 %265
  %267 = load i32, i32* %12, align 4
  %268 = sext i32 %267 to i64
  %269 = getelementptr inbounds i32, i32* %266, i64 %268
  %270 = load i32, i32* %269, align 4
  %271 = icmp eq i32 %270, 0
  br i1 %271, label %272, label %295

272:                                              ; preds = %261
  %273 = load i32, i32* %11, align 4
  %274 = sub nsw i32 %273, 1
  %275 = sext i32 %274 to i64
  %276 = mul nsw i64 %275, %19
  %277 = getelementptr inbounds i32, i32* %22, i64 %276
  %278 = load i32, i32* %12, align 4
  %279 = sext i32 %278 to i64
  %280 = getelementptr inbounds i32, i32* %277, i64 %279
  %281 = load i32, i32* %280, align 4
  %282 = icmp eq i32 %281, 0
  br i1 %282, label %283, label %295

283:                                              ; preds = %272
  %284 = load i32, i32* %11, align 4
  %285 = sext i32 %284 to i64
  %286 = mul nsw i64 %285, %19
  %287 = getelementptr inbounds i32, i32* %22, i64 %286
  %288 = load i32, i32* %12, align 4
  %289 = add nsw i32 %288, 1
  %290 = sext i32 %289 to i64
  %291 = getelementptr inbounds i32, i32* %287, i64 %290
  %292 = load i32, i32* %291, align 4
  %293 = icmp eq i32 %292, 0
  br i1 %293, label %294, label %295

294:                                              ; preds = %283
  br label %300

295:                                              ; preds = %283, %272, %261, %250
  br label %296

296:                                              ; preds = %295, %247
  br label %297

297:                                              ; preds = %296, %211
  br label %298

298:                                              ; preds = %297, %175
  br label %299

299:                                              ; preds = %298, %139
  br label %78

300:                                              ; preds = %294, %88
  store i32 0, i32* %1, align 4
  %301 = load i8*, i8** %4, align 8
  call void @llvm.stackrestore(i8* %301)
  %302 = load i32, i32* %1, align 4
  ret i32 %302
}